# file opened: C:\Users\Mario\Documents\Trabajos Uni\2\Arquitectura y Organizacion de computadores\Tetris\main.asm
  1   0000                  DEVICE ZXSPECTRUM48 ;Especificacion para el emulador           ;
  2   0000                  ORG $8000 ;Programa empieza en $8000                           ;
  3   8000 31 00 00         LD SP, 0 ;Carga del stack en 0                                 ;
  4   8003              ;-------------------------------------------------------------------
  5   8003              gameStart:
  6   8003 CD 7F 81         CALL STARTSCREEN
  7   8006              gameInit:
  8   8006 CD 3F 80         CALL MAINGAME
  9   8009              gameEnd:
 10   8009 CD 0E 80         CALL ENDSCREEN
 11   800C
 12   800C 18 FE        mainEnd: JR mainEnd
 13   800E              ;-------------------------------------------------------------------
 14   800E                  INCLUDE pantalla-final.asm
# file opened: C:\Users\Mario\Documents\Trabajos Uni\2\Arquitectura y Organizacion de computadores\Tetris\pantalla-final.asm
  1+  800E              ENDSCREEN:
  2+  800E CD 93 82         CALL CLEARSCR
  3+  8011              ;--------------------------------------------------
  4+  8011              ;Imprime el GAME OVER
  5+  8011 3E 82            LD A,2+$80 ; Se da formato de color al texto
  6+  8013 06 0A            LD B,10    ; Coordenada de la fila
  7+  8015 0E 0C            LD C,12     ; Coordenada de la columna
  8+  8017 DD 21 1F 80      LD IX, GameOverText   ; Se añade el título
  9+  801B CD 22 82         CALL PRINTAT
 10+  801E C9               RET
 11+  801F
 12+  801F
 13+  801F
 14+  801F
 15+  801F              ;---------------------------------------------------------
 16+  801F 47 41 4D 45  GameOverText: db "GAME OVER", 0 ; Texto de fin de partida
 16+  8023 20 4F 56 45
 16+  8027 52 00
 17+  8029 44 65 73 65  ContinueText: db "Desea jugar de nuevo?", 0 ; Pregunta continue
 17+  802D 61 20 6A 75
 17+  8031 67 61 72 20
 17+  8035 64 65 20 6E
 17+  8039 75 65 76 6F
 17+  803D 3F 00
# file closed: C:\Users\Mario\Documents\Trabajos Uni\2\Arquitectura y Organizacion de computadores\Tetris\pantalla-final.asm
 15   803F                  INCLUDE game.asm
# file opened: C:\Users\Mario\Documents\Trabajos Uni\2\Arquitectura y Organizacion de computadores\Tetris\game.asm
  1+  803F              MAINGAME:                                 ;
  2+  803F CD 93 82         CALL CLEARSCR                         ;                                        ;
  3+  8042              ;------------------------------------------
  4+  8042 CD 50 80         CALL CREATEBOARD
  5+  8045 CD 5B 81         CALL RANDOMTETRO
  6+  8048 CD A4 80         CALL DRAWTETRO
  7+  804B CD E4 80         CALL TETRODOWN
  8+  804E
  9+  804E 18 FE        fin: JR fin
 10+  8050              ;-----------------------------------------
 11+  8050                  INCLUDE create-board.asm
# file opened: C:\Users\Mario\Documents\Trabajos Uni\2\Arquitectura y Organizacion de computadores\Tetris\create-board.asm
  1++ 8050              CREATEBOARD:                                 ;
  2++ 8050 CD 93 82         CALL CLEARSCR                         ;
  3++ 8053              ANCHO EQU 14                              ;
  4++ 8053              LARGO EQU 22                              ;
  5++ 8053              ;------------------------------------------
  6++ 8053 CD A3 86         CALL Tetris_3D
  7++ 8056 3E 20            LD A, 32
  8++ 8058 D6 02            SUB 2
  9++ 805A D6 0E            SUB ANCHO
 10++ 805C CB 3F            SRL A
 11++ 805E 4F               LD C, A
 12++ 805F 3E 00            LD A, 0
 13++ 8061 C6 1F            ADD (32 - 1)
 14++ 8063 47               LD B, A
 15++ 8064 21 00 58         LD HL, $5800
 16++ 8067              bucle1:
 17++ 8067 23               INC HL
 18++ 8068 10 FD            DJNZ bucle1
 19++ 806A 06 16            LD B, LARGO
 20++ 806C              bucle:
 21++ 806C C5               PUSH BC
 22++ 806D 41               LD B, C
 23++ 806E              marco_izq:
 24++ 806E 23               INC HL
 25++ 806F 10 FD            DJNZ marco_izq
 26++ 8071 C5               PUSH BC
 27++ 8072              margenizq:
 28++ 8072 23               INC HL
 29++ 8073 0E 07            LD C, 7
 30++ 8075 79               LD A, C
 31++ 8076 87               ADD A
 32++ 8077 87               ADD A
 33++ 8078 87               ADD A
 34++ 8079 77               LD (HL), A
 35++ 807A 3E 00            LD A, 0
 36++ 807C 06 0E            LD B, ANCHO
 37++ 807E 80               ADD B
 38++ 807F 47               LD B, A
 39++ 8080              comienzo_ancho:
 40++ 8080 23               INC HL
 41++ 8081 10 FD            DJNZ comienzo_ancho
 42++ 8083              margendrcho:
 43++ 8083 23               INC HL
 44++ 8084 0E 07            LD C,7
 45++ 8086 79               LD A, C
 46++ 8087 87               ADD A
 47++ 8088 87               ADD A
 48++ 8089 87               ADD A
 49++ 808A 77               ld (HL), A
 50++ 808B
 51++ 808B C1               POP BC
 52++ 808C 41               LD B, C
 53++ 808D              marco_drcho
 54++ 808D 23               INC HL
 55++ 808E 10 FD            DJNZ marco_drcho
 56++ 8090 C1               POP BC
 57++ 8091 10 D9            DJNZ bucle
 58++ 8093
 59++ 8093 41               LD B, C
 60++ 8094              marco_izq_fila_ult:
 61++ 8094 23               INC HL
 62++ 8095 10 FD            DJNZ marco_izq_fila_ult
 63++ 8097              fila_ultima:
 64++ 8097 06 10            LD B, ANCHO + 2
 65++ 8099              bucle2:
 66++ 8099 23               INC HL
 67++ 809A 0E 07            LD C,7
 68++ 809C 79               LD A, C
 69++ 809D 87               ADD A
 70++ 809E 87               ADD A
 71++ 809F 87               ADD A
 72++ 80A0 77               ld (HL), A
 73++ 80A1 10 F6            DJNZ bucle2
 74++ 80A3
 75++ 80A3 C9               RET
# file closed: C:\Users\Mario\Documents\Trabajos Uni\2\Arquitectura y Organizacion de computadores\Tetris\create-board.asm
 12+  80A4                  INCLUDE draw-tetro.asm
# file opened: C:\Users\Mario\Documents\Trabajos Uni\2\Arquitectura y Organizacion de computadores\Tetris\draw-tetro.asm
  1++ 80A4              DRAWTETRO:
  2++ 80A4              ;---------------------------------------------
  3++ 80A4 DD 7E 00         LD A, (IX)
  4++ 80A7 57               LD D, A
  5++ 80A8 DD 23            INC IX
  6++ 80AA DD 7E 00         LD A, (IX)
  7++ 80AD 5F               LD E, A
  8++ 80AE 42               LD B, D
  9++ 80AF              drawfilas:
 10++ 80AF C5               PUSH BC
 11++ 80B0 43               LD B, E
 12++ 80B1              drawcolumnas:
 13++ 80B1 50               LD D, B
 14++ 80B2 DD 23            INC IX
 15++ 80B4 DD 7E 00         LD A, (IX)
 16++ 80B7 C1               POP BC
 17++ 80B8 4A               LD C, D
 18++ 80B9 CD C4 80         CALL DRAWPIXEL
 19++ 80BC C5               PUSH BC
 20++ 80BD 42               LD B, D
 21++ 80BE 10 F1            DJNZ drawcolumnas
 22++ 80C0 C1               POP BC
 23++ 80C1 10 EC            DJNZ drawfilas
 24++ 80C3
 25++ 80C3 C9               RET
 26++ 80C4              ;------------------------------------------
 27++ 80C4                  INCLUDE draw-pixel.asm
# file opened: C:\Users\Mario\Documents\Trabajos Uni\2\Arquitectura y Organizacion de computadores\Tetris\draw-pixel.asm
  1+++80C4              DRAWPIXEL:
  2+++80C4 F5               PUSH AF
  3+++80C5 D5               PUSH DE
  4+++80C6 F5               PUSH AF
  5+++80C7 C5               PUSH BC
  6+++80C8              ;------------------------------------------------------
  7+++80C8 78               LD A, B
  8+++80C9 47               LD B, A
  9+++80CA 68               LD L, B
 10+++80CB 26 00            LD H, 0 ; HL = B
 11+++80CD
 12+++80CD 29               ADD HL, HL
 13+++80CE 29               ADD HL, HL
 14+++80CF 29               ADD HL, HL
 15+++80D0 29               ADD HL, HL
 16+++80D1 29               ADD HL, HL; HL = HL *32
 17+++80D2 79               LD A, C
 18+++80D3 C6 0E            ADD 14
 19+++80D5 4F               LD C, A
 20+++80D6 59               LD E, C
 21+++80D7 16 00            LD D, 0 ; DE = C
 22+++80D9 19               ADD HL, DE
 23+++80DA 11 00 58         LD DE, $5800
 24+++80DD 19               ADD HL, DE ; HL = Y*32 + X + $5800
 25+++80DE C1               POP BC
 26+++80DF F1               POP AF
 27+++80E0 77               LD (HL), A
 28+++80E1 D1               POP DE
 29+++80E2 F1               POP AF
 30+++80E3 C9               RET
 31+++80E4              ;------------------------------------------------
# file closed: C:\Users\Mario\Documents\Trabajos Uni\2\Arquitectura y Organizacion de computadores\Tetris\draw-pixel.asm
# file closed: C:\Users\Mario\Documents\Trabajos Uni\2\Arquitectura y Organizacion de computadores\Tetris\draw-tetro.asm
 13+  80E4                  INCLUDE tetro-down.asm
# file opened: C:\Users\Mario\Documents\Trabajos Uni\2\Arquitectura y Organizacion de computadores\Tetris\tetro-down.asm
  1++ 80E4              TETRODOWN:
  2++ 80E4              ;-----------------------------------------
  3++ 80E4 FD 21 8A 86      LD IY, row_coords
  4++ 80E8 06 16            LD B, 22
  5++ 80EA CD 5B 81         CALL RANDOMTETRO
  6++ 80ED              down:
  7++ 80ED C5               PUSH BC
  8++ 80EE CD A4 80         CALL DRAWTETRO
  9++ 80F1 CD 54 81         CALL LASTPOSITION
 10++ 80F4 FD 23            INC IY
 11++ 80F6 FE 64            CP 100
 12++ 80F8 28 0D            JR Z, downend
 13++ 80FA FD 2B            DEC IY
 14++ 80FC CD 09 81         CALL TETRODEL
 15++ 80FF FD 23            INC IY
 16++ 8101 CD 54 81         CALL LASTPOSITION
 17++ 8104 C1               POP BC
 18++ 8105 10 E6            DJNZ down
 19++ 8107              downend:
 20++ 8107 C1               POP BC
 21++ 8108 C9               RET
 22++ 8109              ;----------------------------------------------------
 23++ 8109                  INCLUDE del-tetro.asm
# file opened: C:\Users\Mario\Documents\Trabajos Uni\2\Arquitectura y Organizacion de computadores\Tetris\del-tetro.asm
  1+++8109              TETRODEL:
  2+++8109              ;------------------------------------------------------
  3+++8109 DD 7E 00         LD A, (IX)
  4+++810C 57               LD D, A
  5+++810D DD 23            INC IX
  6+++810F DD 7E 00         LD A, (IX)
  7+++8112 5F               LD E, A
  8+++8113 42               LD B, D
  9+++8114              rowdel:
 10+++8114 C5               PUSH BC
 11+++8115 43               LD B, E
 12+++8116              columndel:
 13+++8116 50               LD D, B
 14+++8117 DD 23            INC IX
 15+++8119 3E 00            LD A, 0
 16+++811B C1               POP BC
 17+++811C 4A               LD C, D
 18+++811D CD 28 81         CALL DELPIXEL
 19+++8120 C5               PUSH BC
 20+++8121 42               LD B, D
 21+++8122 10 F2            DJNZ columndel
 22+++8124 C1               POP BC
 23+++8125 10 ED            DJNZ rowdel
 24+++8127
 25+++8127 C9               RET
 26+++8128              ;-----------------------------------------
 27+++8128                  INCLUDE del-pixel.asm
# file opened: C:\Users\Mario\Documents\Trabajos Uni\2\Arquitectura y Organizacion de computadores\Tetris\del-pixel.asm
  1+++8128              DELPIXEL:
  2+++8128              ;--------------------------------------------------
  3+++8128 F5               PUSH AF
  4+++8129 D5               PUSH DE
  5+++812A F5               PUSH AF
  6+++812B C5               PUSH BC
  7+++812C
  8+++812C 68               LD L, B
  9+++812D 7D               LD A, L
 10+++812E FD 86 00         ADD (IY)
 11+++8131 C6 05            ADD 5 ;El tope supeior empieza en la fila 5
 12+++8133 6F               LD L, A
 13+++8134 26 00            LD H, 0 ; HL = B
 14+++8136 32 79 81         LD  (GameY), A
 15+++8139 29               ADD HL, HL
 16+++813A 29               ADD HL, HL
 17+++813B 29               ADD HL, HL
 18+++813C 29               ADD HL, HL
 19+++813D 29               ADD HL, HL; HL = HL *32
 20+++813E 79               LD A, C
 21+++813F C6 0D            ADD 13
 22+++8141 4F               LD C, A
 23+++8142 32 78 81         LD (GameX), A
 24+++8145 59               LD E, C
 25+++8146 16 00            LD D, 0 ; DE = C
 26+++8148 19               ADD HL, DE
 27+++8149 11 00 58         LD DE, $5800
 28+++814C 19               ADD HL, DE ; HL = Y*32 + X + $5800
 29+++814D C1               POP BC
 30+++814E F1               POP AF
 31+++814F 36 00            LD (HL), 0
 32+++8151 D1               POP DE
 33+++8152 F1               POP AF
 34+++8153 C9               RET
# file closed: C:\Users\Mario\Documents\Trabajos Uni\2\Arquitectura y Organizacion de computadores\Tetris\del-pixel.asm
# file closed: C:\Users\Mario\Documents\Trabajos Uni\2\Arquitectura y Organizacion de computadores\Tetris\del-tetro.asm
 24++ 8154                  INCLUDE last-position.asm
# file opened: C:\Users\Mario\Documents\Trabajos Uni\2\Arquitectura y Organizacion de computadores\Tetris\last-position.asm
  1+++8154              LASTPOSITION:
  2+++8154              ;---------------------------
  3+++8154 06 07            LD B, 7
  4+++8156              return:
  5+++8156 DD 2B            DEC IX
  6+++8158 10 FC            DJNZ return
  7+++815A
  8+++815A C9               RET
# file closed: C:\Users\Mario\Documents\Trabajos Uni\2\Arquitectura y Organizacion de computadores\Tetris\last-position.asm
 25++ 815B                  INCLUDE tetro-random.asm
# file opened: C:\Users\Mario\Documents\Trabajos Uni\2\Arquitectura y Organizacion de computadores\Tetris\tetro-random.asm
  1+++815B              RANDOMTETRO:
  2+++815B ED 5F            LD A, R
  3+++815D E6 1F            AND 31
  4+++815F FE 13            CP 19
  5+++8161 38 02            JR C, continue
  6+++8163 D6 13            SUB 19
  7+++8165              continue:
  8+++8165 DD 21 A6 85      LD IX, T_O
  9+++8169 11 0C 00         LD DE, ANCHOTETRO
 10+++816C B7               OR A
 11+++816D 28 05            JR Z, godraw
 12+++816F              more:
 13+++816F DD 19            ADD IX, DE
 14+++8171 3D               DEC A
 15+++8172 20 FB            JR NZ, more
 16+++8174
 17+++8174              godraw:
 18+++8174 CD A4 80         CALL DRAWTETRO
 19+++8177
 20+++8177 C9               RET
 21+++8178              ;-------------------------------
 22+++8178              ANCHOTETRO EQU T_L1 - T_O
# file closed: C:\Users\Mario\Documents\Trabajos Uni\2\Arquitectura y Organizacion de computadores\Tetris\tetro-random.asm
# file closed: C:\Users\Mario\Documents\Trabajos Uni\2\Arquitectura y Organizacion de computadores\Tetris\tetro-down.asm
 14+  8178                  INCLUDE position-coords.asm
# file opened: C:\Users\Mario\Documents\Trabajos Uni\2\Arquitectura y Organizacion de computadores\Tetris\position-coords.asm
  1++ 8178              gamestatusstruct:
  2++ 8178              ;--------------------
  3++ 8178
  4++ 8178 00           GameX: DB 0
  5++ 8179 00           GameY: DB 0
  6++ 817A 00 00        TetroPtr: DW 0
  7++ 817C 00 00        DownCounter: DW 0
  8++ 817E 00           UndoKey: DB 0
# file closed: C:\Users\Mario\Documents\Trabajos Uni\2\Arquitectura y Organizacion de computadores\Tetris\position-coords.asm
# file closed: C:\Users\Mario\Documents\Trabajos Uni\2\Arquitectura y Organizacion de computadores\Tetris\game.asm
 16   817F                  INCLUDE pantalla-inicio.asm
# file opened: C:\Users\Mario\Documents\Trabajos Uni\2\Arquitectura y Organizacion de computadores\Tetris\pantalla-inicio.asm
  1+  817F
  2+  817F              STARTSCREEN:                                   ;
  3+  817F CD 93 82         CALL CLEARSCR                              ;
  4+  8182 CD 85 81         CALL startInit                             ;
  5+  8185              ;-----------------------------------------------
  6+  8185              startInit:
  7+  8185              ;Imprimir título
  8+  8185 3E 83            LD A,3+$80 ; Se da formato de color al texto
  9+  8187 06 03            LD B,3     ; Coordenada de la fila
 10+  8189 0E 08            LD C,8     ; Coordenada de la columna
 11+  818B DD 21 E4 81      LD IX,StartTitle    ; Se añade el título
 12+  818F CD 22 82         CALL PRINTAT    ; Se llama a la rutina que imprime el título
 13+  8192
 14+  8192              ;Imprimir pregunta
 15+  8192
 16+  8192 3E 04            LD A,4  ; Se da formato de color al texto
 17+  8194 06 0E            LD B,14 ; Coordenada de la fila
 18+  8196 0E 02            LD C,2  ; Coordenada de la columna
 19+  8198 DD 21 F6 81      LD IX,StartQuestion ; Se añade la pregunta
 20+  819C CD 22 82         CALL PRINTAT ; Se llama a la rutina para imprimir la pregunta
 21+  819F
 22+  819F 06 0E            LD B,14 ; Se pone el cursor en las coordenadas 14(fila)
 23+  81A1 0E 1C            LD C,28 ; y 28(Columna)
 24+  81A3 CD AC 81         CALL Coor_Atrib ; Llamamos a la rutina encargada de devolver la dirección del atributo
 25+  81A6 3E 84            LD A,4+$80  ; Se le da el formato
 26+  81A8 77               LD (HL),A   ; Se imprime el cursor
 27+  81A9
 28+  81A9 CD C7 81         CALL TecladoInicio    ; Se lee el input del teclado hasta que se pulse S o N
 29+  81AC
 30+  81AC
 31+  81AC              ;Función para guardar coordenadas
 32+  81AC              Coor_Atrib:
 33+  81AC F5               PUSH AF ; Se guarda el registro AF en el stack
 34+  81AD 60               LD H,b  ; Los bits 4,5 de B deben ser los bits 0,1 de H
 35+  81AE CB 3C            SRL H
 35+  81B0 CB 3C          SRL H
 35+  81B2 CB 3C          SRL H
 36+  81B4 78               LD A,B  ; Los bits 0,1,2 de B deben ser los bits 5,6,7 de L
 37+  81B5 CB 27            SLA A
 37+  81B7 CB 27          SLA A
 37+  81B9 CB 27          SLA A
 37+  81BB CB 27          SLA A
 37+  81BD CB 27          SLA a
 38+  81BF B1               OR c  ; Y C son los bits 0-4 de L
 39+  81C0 6F               LD L,A
 40+  81C1 01 00 58         LD BC, $5800
 41+  81C4 09               ADD HL,BC ; Se le suma la dirección de memoria del comienzo de los atributos
 42+  81C5 F1               POP AF ; Se devuelve el registro AF del stack
 43+  81C6 C9               RET
 44+  81C7
 45+  81C7              ;Rutina que guarda lo que pulsa el usuario
 46+  81C7              TecladoInicio:          ; Rutina para leer del teclado 'S' o 'N'
 47+  81C7 01 FE 7F         LD BC,$7FFE         ; Escanear línea B,N,M,SYMB,Space
 48+  81CA ED 78            IN A,(C)
 49+  81CC CB 5F            BIT 3,A
 50+  81CE 28 0C            JR Z,T_N            ; Han pulsado N
 51+  81D0 01 FE FD         LD BC,$FDFE         ; Escanear línea G,F,D,S,A
 52+  81D3 ED 78            IN A,(C)
 53+  81D5 CB 4F            BIT 1,A
 54+  81D7 20 EE            JR NZ,TecladoInicio       ; No han pulsado 'S'
 55+  81D9
 56+  81D9              T_S:
 57+  81D9 18 02            JR Soltar_Tecla     ; Esperar q que suelten la tecla
 58+  81DB C9               RET
 59+  81DC
 60+  81DC              T_N:
 61+  81DC C9               RET
 62+  81DD
 63+  81DD              Soltar_Tecla:           ; Rutina de espera hasta que se suelta la tecla
 64+  81DD ED 78            IN A,(C)            ; Leer del puerto que se ha definido en Lee_Tecla
 65+  81DF FE FF            CP $FF              ; Comprobar que no hay tecla pulsada
 66+  81E1 20 FA            JR NZ,Soltar_Tecla  ; esperar hasta que no haya tecla pulsada
 67+  81E3 C9               RET
 68+  81E4
 69+  81E4              ;----------------------------------------------------------------------------
 70+  81E4              ; Carga de ficheros y "variables"
 71+  81E4 57 45 4C 43  StartTitle: db "WELCOME TO TETRIS", 0 ;Título del tetris
 71+  81E8 4F 4D 45 20
 71+  81EC 54 4F 20 54
 71+  81F0 45 54 52 49
 71+  81F4 53 00
 72+  81F6 49 6E 69 63  StartQuestion: db "Iniciar una partida? (S/N)", 0 ;Pregunta Inicio
 72+  81FA 69 61 72 20
 72+  81FE 75 6E 61 20
 72+  8202 70 61 72 74
 72+  8206 69 64 61 3F
 72+  820A 20 28 53 2F
 72+  820E 4E 29 00
 73+  8211 48 61 73 20  Respuesta: db "Has contestado: ",0  ; Mensaje con la respuesta
 73+  8215 63 6F 6E 74
 73+  8219 65 73 74 61
 73+  821D 64 6F 3A 20
 73+  8221 00
 74+  8222
 75+  8222
# file closed: C:\Users\Mario\Documents\Trabajos Uni\2\Arquitectura y Organizacion de computadores\Tetris\pantalla-inicio.asm
 17   8222                  INCLUDE printat.asm ;Se "importa" la rutina printat
# file opened: C:\Users\Mario\Documents\Trabajos Uni\2\Arquitectura y Organizacion de computadores\Tetris\printat.asm
  1+  8222              ; -------------------------------
  2+  8222              ; ZX Spectrum Text print library
  3+  8222              ; Daniel León - AOC - UFV 2020
  4+  8222              ; -------------------------------
  5+  8222
  6+  8222
  7+  8222              ; ----------------------------------------------------------------------------------------
  8+  8222              ; PRINTAT - Print a string in a position and attributes as per registers:
  9+  8222              ;		IN	A	: Bit 7=1 For Flash / Bit 6=1 For Brigh / Bit 5,4,3 for Paper / Bit 2,1,0 for Ink
 10+  8222              ;		IN	B	: Row 0..23
 11+  8222              ;		IN	C	: Column 0..31
 12+  8222              ;		IN	IX	: Address of text (Text must end in a 0)
 13+  8222              ; ----------------------------------------------------------------------------------------
 14+  8222 CD 31 82     PRINTAT:	CALL PREP_PRT				; Update Attribute var &Screen & Attributes pointers
 15+  8225              ; ----------------------------------------------------------------------------------------
 16+  8225              ;		VVV Do not move PRINTSTR below as PRINTAT continues into PRINTSTR routine
 17+  8225              ; ----------------------------------------------------------------------------------------
 18+  8225              ; PRINTSTR - Prints String - IX Points to the String start
 19+  8225              ; ----------------------------------------------------------------------------------------
 20+  8225 DD 7E 00     PRINTSTR:   LD A,(IX)					; A Contains first char to print
 21+  8228 B7           			OR A						; check for end of string (0)
 22+  8229 C8           			RET Z						; Finish printing if 0
 23+  822A CD 5F 82     			CALL PRINTCHNUM
 24+  822D DD 23        			INC IX						; Move to next char in string
 25+  822F 18 F4        			JR PRINTSTR					; Start over printing sequence
 26+  8231              ; ----------------------------------------------------------------------------------------
 27+  8231
 28+  8231
 29+  8231              ;-----------------------------------------------------------------------------------------
 30+  8231              ; PREP_PRT - Updates Print_Attr, SCR & ATTR Vars
 31+  8231              ;-----------------------------------------------------------------------------------------
 32+  8231 32 A5 82     PREP_PRT:	LD (PRINT_ATTR),A			; Set Attribute
 33+  8234 CD 3A 82     PREP_PRT_2:	CALL CRtoSCREEN
 34+  8237 C3 4C 82     			JP CRtoATTR
 35+  823A              ;-----------------------------------------------------------------------------------------
 36+  823A
 37+  823A              ;-----------------------------------------------------------------------------------------
 38+  823A              ; CRtoSCREEN - Converts a scr char coord into a SCREEN Address   b,c = y,x positions
 39+  823A              ;	IN  - B=Row, C=Column
 40+  823A              ;	OUT - HL=Address in screen also stored in (SCR_CUR_PTR)
 41+  823A              ;	Conversion:
 42+  823A              ;			Row FFfff   Column CCCCC
 43+  823A              ;			HL=%010FF000 fffCCCCC
 44+  823A              ;-----------------------------------------------------------------------------------------
 45+  823A              CRtoSCREEN:
 46+  823A 78           			LD A,B						; %___FFfff
 47+  823B F6 40        			OR #40						; %010FFfff
 48+  823D E6 F8        			AND #F8						; %010FF000
 49+  823F 67           			LD H,A
 50+  8240
 51+  8240 78           			LD A,B						; %___FFfff
 52+  8241 E6 07        			AND #7						; %00000fff
 53+  8243 0F           			RRCA						; %f00000ff
 54+  8244 0F           			RRCA						; %ff00000f
 55+  8245 0F           			RRCA						; %fff00000
 56+  8246 B1           			OR C						; %fffCCCCC
 57+  8247 6F           			LD L,A
 58+  8248 22 A1 82                 LD (SCR_CUR_PTR),HL			; Update Variable
 59+  824B C9                       RET
 60+  824C              ; ----------------------------------------------------------------------------------------
 61+  824C
 62+  824C
 63+  824C
 64+  824C              ;-----------------------------------------------------------------------------------------
 65+  824C              ; CRtoATTR - Converts a screen char coord  into a ATTR Address  b,c = y,x positions
 66+  824C              ;	IN  - B=Row, C=Column
 67+  824C              ;	OUT - HL=Address in screen also stored in (SCR_ATTR_PTR)
 68+  824C              ;	Conversion:
 69+  824C              ;			Row FFfff   Column CCCCC
 70+  824C              ;			HL=%010110FF fffCCCCC
 71+  824C              ;-----------------------------------------------------------------------------------------
 72+  824C              CRtoATTR:
 73+  824C 78           			LD A,B						; %___FFfff
 74+  824D 0F           			RRCA						; %f000FFff
 75+  824E 0F           			RRCA						; %ff000FFf
 76+  824F 0F           			RRCA						; %fff000FF
 77+  8250 6F           			LD L,A
 78+  8251 E6 03        			AND 3						; %000000FF	value of FF can be only 00,01,10
 79+  8253 F6 58        			OR #58						; %010110FF value will be #58, #59 or #5A
 80+  8255 67           			LD H,A
 81+  8256
 82+  8256 7D           			LD A,L						; %fff000FF
 83+  8257 E6 E0        			AND #E0						; %fff00000
 84+  8259 B1           			OR C						; %fffCCCCC
 85+  825A 6F           			LD L,A
 86+  825B
 87+  825B 22 A3 82                 LD (SCR_ATTR_PTR),HL		; Update Variable
 88+  825E C9                       RET
 89+  825F              ; ----------------------------------------------------------------------------------------
 90+  825F
 91+  825F
 92+  825F
 93+  825F              ; ----------------------------------------------------------------------------------------
 94+  825F              ; PRINTCHNUM - Prints Char Number N (stored in A)
 95+  825F              ;-----------------------------------------------------------------------------------------
 96+  825F              PRINTCHNUM:	;SUB 32						; Adjust Ascii to charset
 97+  825F 26 00        			LD H,0						; Multiply value by 8 to get to right Char in Charset
 98+  8261 6F           			LD L,A
 99+  8262 29           			ADD HL,HL
100+  8263 29           			ADD HL,HL
101+  8264 29           			ADD HL,HL
102+  8265 11 A6 81     			LD DE, CHARSET-(8*32)		; Optimize in compile time (instead of sub 32)
103+  8268 19           			ADD HL,DE
104+  8269 EB           			EX  DE,HL					;Value in DE
105+  826A              			; Continues to printchar below
106+  826A              ; ----------------------------------------------------------------------------------------
107+  826A
108+  826A
109+  826A              ; ----------------------------------------------------------------------------------------
110+  826A              ; PRINTCHAR - Prints Char  (DE points to the char. Uses HL as last Cur Pointer)
111+  826A              ; ----------------------------------------------------------------------------------------
112+  826A              PRINTCHAR:
113+  826A 06 08        			LD B,8						; 8 Lines per char
114+  826C 2A A1 82                 LD HL, (SCR_CUR_PTR)		; Load Cursor Pointer y,x
115+  826F
116+  826F 1A           BYTEPCHAR:	LD A,(DE)					; Get Char to be printed, first line
117+  8270 77           			LD (HL),A					; Move to Printing location
118+  8271 24                       INC H						; inc H so next line in char (ZX Spectrum Screen RAM)
119+  8272 13                       INC DE 						; next line to be printed
120+  8273 10 FA                    DJNZ BYTEPCHAR				; Repeat 8 lines
121+  8275 3A A5 82                 LD A,(PRINT_ATTR) 			; Load Attributes to print char with
122+  8278 2A A3 82                 LD HL, (SCR_ATTR_PTR)
123+  827B 77                       LD (HL),A
124+  827C 21 A3 82                 LD HL, SCR_ATTR_PTR			; Get pointer to ATTR
125+  827F 34                       INC (HL)					; Move Attribute cursor to next char
126+  8280 21 A1 82     			LD HL, SCR_CUR_PTR
127+  8283 34           			INC (HL)					; update Cursor pointer to next position
128+  8284 C9                       RET
129+  8285              ; ----------------------------------------------------------------------------------------
130+  8285
131+  8285
132+  8285
133+  8285              ; ----------------------------------------------------------------------------------------
134+  8285              ; INK2PAPER - moves ink of attribute stored in (PRINT_ATTR) to paper and sets ink to 0
135+  8285              ; 				Sets bright 1 and flash 0
136+  8285              ; ----------------------------------------------------------------------------------------
137+  8285 3A A5 82     INK2PAPER:	LD A, (PRINT_ATTR)		    ; Get storedAttribute
138+  8288 E6 07                    AND 7						; get Attr INK in A
139+  828A 07           			RLCA
140+  828B 07           			RLCA
141+  828C 07           			RLCA						; move Ink to Paper
142+  828D F6 40        			OR 64						; ink 0 bright 1
143+  828F 32 A5 82     			LD (PRINT_ATTR),A		    ; Get storedAttribute
144+  8292 C9           			RET
145+  8293              ; ----------------------------------------------------------------------------------------
146+  8293
147+  8293
148+  8293
149+  8293
150+  8293 21 00 40     CLEARSCR:	LD HL,$4000					; Erases screen by writing 0 to all pixels and attributes
151+  8296 11 01 40     			LD DE,$4001
152+  8299 01 FF 1A     			LD BC,6911
153+  829C 36 00        			LD (HL),0
154+  829E ED B0        			LDIR
155+  82A0 C9           			RET
156+  82A1
157+  82A1
158+  82A1              SCR_CUR_PTR
158+  82A1 00 00          	db $00, $00				; Cursor Pointer in Screen (2 bytes) (HL)
159+  82A3 00 00        SCR_ATTR_PTR: 	db $00, $00				; Attr Pointer in Screen (2 bytes) (HL)
160+  82A5 00           PRINT_ATTR:		db $00					; Attribute used by printchar routine (1 byte)
161+  82A6
162+  82A6              CHARSET: incbin "charset.bin"			; Charset used
163+  85A6
# file closed: C:\Users\Mario\Documents\Trabajos Uni\2\Arquitectura y Organizacion de computadores\Tetris\printat.asm
 18   85A6                  INCLUDE fichas.asm
# file opened: C:\Users\Mario\Documents\Trabajos Uni\2\Arquitectura y Organizacion de computadores\Tetris\fichas.asm
  1+  85A6              TETROMINOS:                            ;
  2+  85A6              ;---------------------------------------
  3+  85A6              ;Tetromino O
  4+  85A6 02 02 30 30  T_O: DB 2, 2, 6*8, 6*8, 6*8, 6*8, 0, 0
  4+  85AA 30 30 00 00
  4+  85AE A6 85 A6 85    DW T_O, T_O
  5+  85B2              ;Tetromino L
  6+  85B2 03 02 20 00  T_L1: DB 3, 2, 4*8, 0, 4*8, 0, 4*8, 4*8
  6+  85B6 20 00 20 20
  6+  85BA BE 85 CA 85    DW T_L2, T_L3
  7+  85BE 02 03 00 00  T_L2: DB 2, 3, 0, 0, 4*8, 4*8, 4*8, 4*8
  7+  85C2 20 20 20 20
  7+  85C6 D6 85 B2 85    DW T_L4, T_L1
  8+  85CA 03 02 20 20  T_L3: DB 3, 2, 4*8, 4*8, 4*8, 4*8, 0, 0
  8+  85CE 20 20 00 00
  8+  85D2 B2 85 D6 85    DW T_L1, T_L4
  9+  85D6 03 02 20 20  T_L4: DB 3, 2, 4*8, 4*8, 0, 4*8, 0, 4*8
  9+  85DA 00 20 00 20
  9+  85DE BE 85 CA 85    DW T_L2, T_L3
 10+  85E2              ;Tetromino J
 11+  85E2 03 02 00 10  T_J1: DB 3, 2, 0, 2*8, 0, 2*8, 2*8, 2*8
 11+  85E6 00 10 10 10
 11+  85EA EE 85 FA 85    DW T_J2, T_J3
 12+  85EE 02 03 10 10  T_J2: DB 2, 3, 2*8, 2*8, 2*8, 0, 0, 2*8
 12+  85F2 10 00 00 10
 12+  85F6 06 86 E2 85    DW T_J4, T_J1
 13+  85FA 02 03 10 00  T_J3: DB 2, 3, 2*8, 0, 0, 2*8, 2*8, 2*8
 13+  85FE 00 10 10 10
 13+  8602 E2 85 06 86    DW T_J1, T_J4
 14+  8606 03 02 10 10  T_J4: DB 3, 2, 2*8, 2*8, 2*8, 0, 2*8, 0
 14+  860A 10 00 10 00
 14+  860E EE 85 FA 85    DW T_J2, T_J3
 15+  8612              ;Tetromino T
 16+  8612 02 03 28 28  T_T1: DB 2, 3, 5*8, 5*8, 5, 0, 5*8, 0
 16+  8616 05 00 28 00
 16+  861A 1E 86 2A 86    DW T_T2, T_T3
 17+  861E 03 02 28 00  T_T2: DB 3, 2, 5*8, 0, 5*8, 5*8, 5*8, 0
 17+  8622 28 28 28 00
 17+  8626 36 86 12 86    DW T_T4, T_T1
 18+  862A 03 02 00 28  T_T3: DB 3, 2, 0, 5*8, 5*8, 5*8, 0, 5*8
 18+  862E 28 28 00 28
 18+  8632 12 86 36 86    DW T_T1, T_T4
 19+  8636 02 03 00 28  T_T4: DB 2, 3, 0, 5*8, 0, 5*8, 5*8, 5*8
 19+  863A 00 28 28 28
 19+  863E 2A 86 1E 86    DW T_T3, T_T2
 20+  8642              ;Tetromino I
 21+  8642 04 01 30 30  T_I1: DB 4, 1, 6*8, 6*8, 6*8, 6*8, 0, 0
 21+  8646 30 30 00 00
 21+  864A 4E 86 4E 86    DW T_I2, T_I2
 22+  864E 01 04 30 30  T_I2: DB 1, 4, 6*8, 6*8, 6*8, 6*8, 0, 0
 22+  8652 30 30 00 00
 22+  8656 42 86 42 86    DW T_I1, T_I1
 23+  865A              ;Tetromino Z
 24+  865A 02 03 38 38  T_Z1: DB 2, 3, 7*8, 7*8, 0, 0, 7*8, 7*8
 24+  865E 00 00 38 38
 24+  8662 66 86 66 86    DW T_Z2, T_Z2
 25+  8666 03 02 00 38  T_Z2: DB 3, 2, 0, 7*8, 7*8, 7*8, 7*8, 0
 25+  866A 38 38 38 00
 25+  866E 5A 86 5A 86    DW T_Z1, T_Z1
 26+  8672              ;Tetromino S
 27+  8672 02 03 00 18  T_S1: DB 2, 3, 0, 3*8, 3*8, 3*8, 3*8, 0
 27+  8676 18 18 18 00
 27+  867A 7E 86 7E 86    DW T_S2, T_S2
 28+  867E 03 02 18 00  T_S2: DB 3, 2, 3*8, 0, 3*8, 3*8, 0, 3*8
 28+  8682 18 18 00 18
 28+  8686 72 86 7E 86    DW T_S1, T_S2
 29+  868A
 30+  868A 00 01 02 03  row_coords: DB 0, 1, 2, 3, 4, 5, 6, 7, 8, 9, 10, 11, 12, 13, 14, 15, 16
 30+  868E 04 05 06 07
 30+  8692 08 09 0A 0B
 30+  8696 0C 0D 0E 0F
 30+  869A 10
# file closed: C:\Users\Mario\Documents\Trabajos Uni\2\Arquitectura y Organizacion de computadores\Tetris\fichas.asm
 19   869B                  INCLUDE Tetris_3D.asm
# file opened: C:\Users\Mario\Documents\Trabajos Uni\2\Arquitectura y Organizacion de computadores\Tetris\Tetris_3D.asm
  1+  869B FF 81 81 85  Tetro_3D:   DB $FF, $81, $81, $85, $85, $9D, $81, $FF ; Patrón para los bloques
  1+  869F 85 9D 81 FF
  2+  86A3
  3+  86A3              Tetris_3D:
  4+  86A3 16 03            LD D,3              ; Los 3 bloques de píxeles
  5+  86A5 DD 21 00 40      LD IX,$4000         ; Dirección de comienzo de la VRAM
  6+  86A9
  7+  86A9              T3D3:
  8+  86A9
  9+  86A9 FD 21 9B 86      LD IY,Tetro_3D      ; Primer byte del patrón
 10+  86AD
 11+  86AD 0E 08            LD C,8              ; 8 bytes del patrón
 12+  86AF              T3D2:
 13+  86AF 06 00            LD B,0              ; 256 bytes de cada línea del patrón
 14+  86B1 FD 7E 00         LD a,(IY)           ; Cargo el valor del patrón
 15+  86B4              T3D1:
 16+  86B4 DD 77 00         LD (IX),a           ; Cargo el patrón en la VideoRam
 17+  86B7 DD 23            INC IX              ; Siguientes 8 pixels
 18+  86B9 10 F9            DJNZ T3D1           ; Fin del bucle
 19+  86BB
 20+  86BB 0D               DEC C               ; Fin del 2º Bucle
 21+  86BC FD 23            inc IY              ; Siguiente byte del patrón
 22+  86BE 20 EF            JR NZ,T3D2
 23+  86C0
 24+  86C0 15               DEC D               ; Fin del 3º bucle
 25+  86C1 20 E6            JR NZ, T3D3
 26+  86C3
 27+  86C3 C9               RET
 28+  86C4
# file closed: C:\Users\Mario\Documents\Trabajos Uni\2\Arquitectura y Organizacion de computadores\Tetris\Tetris_3D.asm
# file closed: C:\Users\Mario\Documents\Trabajos Uni\2\Arquitectura y Organizacion de computadores\Tetris\main.asm
